target datalayout = "e-m:e-p270:32:32-p271:32:32-p272:64:64-i64:64-i128:128-f80:128-n8:16:32:64-S128"
target triple = "x86_64-pc-linux-gnu"

%struct._object = type { %union.anon, ptr }
%union.anon = type { i64 }
%struct.PyVarObject = type { %struct._object, i64 }
%struct._typeobject = type { %struct.PyVarObject, ptr, i64, i64, ptr, i64, ptr, ptr, ptr, ptr, ptr, ptr, ptr, ptr, ptr, ptr, ptr, ptr, ptr, i64, ptr, ptr, ptr, ptr, i64, ptr, ptr, ptr, ptr, ptr, ptr, ptr, ptr, ptr, i64, ptr, ptr, ptr, ptr, ptr, ptr, ptr, ptr, ptr, ptr, ptr, i32, ptr, ptr, i8, i16 }
%struct.anon = type { i32, i32 }
%struct.PyCodeObject = type { %struct.PyVarObject, ptr, ptr, ptr, i32, i32, i32, i32, i32, i32, i32, i32, i32, i32, i32, i32, ptr, ptr, ptr, ptr, ptr, ptr, ptr, ptr, ptr, i64, ptr, i64, i32, ptr, [1 x i8] }

@PyExc_ValueError = external global ptr, align 8
@PyFunction_Type = external global %struct._typeobject, align 8
@.str.58 = private unnamed_addr constant [33 x i8] c"%.200s(): closures not supported\00", align 1
@.str.59 = private unnamed_addr constant [19 x i8] c"%.200s(): bad func\00", align 1
@.str.60 = private unnamed_addr constant [32 x i8] c"%.200s(): func.__code__ missing\00", align 1
@.str.61 = private unnamed_addr constant [5 x i8] c"func\00", align 1
@PyCode_Type = external global %struct._typeobject, align 8
@.str.62 = private unnamed_addr constant [12 x i8] c"code object\00", align 1
@.str.63 = private unnamed_addr constant [22 x i8] c"%.200s(): bad %s (%s)\00", align 1
@.str.64 = private unnamed_addr constant [24 x i8] c"arguments not supported\00", align 1
@.str.65 = private unnamed_addr constant [23 x i8] c"closures not supported\00", align 1
@.str.66 = private unnamed_addr constant [35 x i8] c"only basic functions are supported\00", align 1

; Function Attrs: alwaysinline nounwind uwtable
define internal i32 @_Py_IsImmortal(ptr noundef %0) #4 {
  %2 = alloca ptr, align 8
  store ptr %0, ptr %2, align 8, !tbaa !3
  %3 = load ptr, ptr %2, align 8, !tbaa !3
  %4 = getelementptr inbounds nuw %struct._object, ptr %3, i32 0, i32 0
  %5 = getelementptr inbounds nuw %struct.anon, ptr %4, i32 0, i32 0
  %6 = load i32, ptr %5, align 8, !tbaa !38
  %7 = icmp slt i32 %6, 0
  %8 = zext i1 %7 to i32
  ret i32 %8
}

; Function Attrs: inlinehint nounwind uwtable
define internal ptr @_Py_TYPE(ptr noundef %0) #3 {
  %2 = alloca ptr, align 8
  store ptr %0, ptr %2, align 8, !tbaa !3
  %3 = load ptr, ptr %2, align 8, !tbaa !3
  %4 = getelementptr inbounds nuw %struct._object, ptr %3, i32 0, i32 1
  %5 = load ptr, ptr %4, align 8, !tbaa !47
  ret ptr %5
}

; Function Attrs: alwaysinline nounwind uwtable
define internal void @Py_DECREF(ptr noundef %0) #4 {
  %2 = alloca ptr, align 8
  store ptr %0, ptr %2, align 8, !tbaa !3
  %3 = load ptr, ptr %2, align 8, !tbaa !3
  %4 = call i32 @_Py_IsImmortal(ptr noundef %3)
  %5 = icmp ne i32 %4, 0
  br i1 %5, label %6, label %7

6:                                                ; preds = %1
  br label %16

7:                                                ; preds = %1
  %8 = load ptr, ptr %2, align 8, !tbaa !3
  %9 = getelementptr inbounds nuw %struct._object, ptr %8, i32 0, i32 0
  %10 = getelementptr inbounds nuw %struct.anon, ptr %9, i32 0, i32 0
  %11 = load i32, ptr %10, align 8, !tbaa !38
  %12 = add i32 %11, -1
  store i32 %12, ptr %10, align 8, !tbaa !38
  %13 = icmp eq i32 %12, 0
  br i1 %13, label %14, label %16

14:                                               ; preds = %7
  %15 = load ptr, ptr %2, align 8, !tbaa !3
  call void @_Py_Dealloc(ptr noundef %15)
  br label %16

16:                                               ; preds = %6, %14, %7
  ret void
}

; Function Attrs: nounwind uwtable
define internal ptr @check_code_object(ptr noundef %0) #0 {
  %2 = alloca ptr, align 8
  %3 = alloca ptr, align 8
  store ptr %0, ptr %3, align 8, !tbaa !19
  %4 = load ptr, ptr %3, align 8, !tbaa !19
  %5 = getelementptr inbounds nuw %struct.PyCodeObject, ptr %4, i32 0, i32 5
  %6 = load i32, ptr %5, align 4, !tbaa !207
  %7 = icmp sgt i32 %6, 0
  br i1 %7, label %24, label %8

8:                                                ; preds = %1
  %9 = load ptr, ptr %3, align 8, !tbaa !19
  %10 = getelementptr inbounds nuw %struct.PyCodeObject, ptr %9, i32 0, i32 6
  %11 = load i32, ptr %10, align 8, !tbaa !209
  %12 = icmp sgt i32 %11, 0
  br i1 %12, label %24, label %13

13:                                               ; preds = %8
  %14 = load ptr, ptr %3, align 8, !tbaa !19
  %15 = getelementptr inbounds nuw %struct.PyCodeObject, ptr %14, i32 0, i32 7
  %16 = load i32, ptr %15, align 4, !tbaa !210
  %17 = icmp sgt i32 %16, 0
  br i1 %17, label %24, label %18

18:                                               ; preds = %13
  %19 = load ptr, ptr %3, align 8, !tbaa !19
  %20 = getelementptr inbounds nuw %struct.PyCodeObject, ptr %19, i32 0, i32 4
  %21 = load i32, ptr %20, align 8, !tbaa !211
  %22 = and i32 %21, 12
  %23 = icmp ne i32 %22, 0
  br i1 %23, label %24, label %25

24:                                               ; preds = %18, %13, %8, %1
  store ptr @.str.64, ptr %2, align 8
  br label %55

25:                                               ; preds = %18
  %26 = load ptr, ptr %3, align 8, !tbaa !19
  %27 = getelementptr inbounds nuw %struct.PyCodeObject, ptr %26, i32 0, i32 13
  %28 = load i32, ptr %27, align 4, !tbaa !212
  %29 = icmp sgt i32 %28, 0
  br i1 %29, label %30, label %31

30:                                               ; preds = %25
  store ptr @.str.65, ptr %2, align 8
  br label %55

31:                                               ; preds = %25
  %32 = load ptr, ptr %3, align 8, !tbaa !19
  %33 = getelementptr inbounds nuw %struct.PyCodeObject, ptr %32, i32 0, i32 23
  %34 = load ptr, ptr %33, align 8, !tbaa !213
  %35 = icmp ne ptr %34, null
  br i1 %35, label %41, label %36

36:                                               ; preds = %31
  %37 = load ptr, ptr %3, align 8, !tbaa !19
  %38 = getelementptr inbounds nuw %struct.PyCodeObject, ptr %37, i32 0, i32 25
  %39 = load i64, ptr %38, align 8, !tbaa !214
  %40 = icmp ugt i64 %39, 0
  br i1 %40, label %41, label %42

41:                                               ; preds = %36, %31
  store ptr @.str.66, ptr %2, align 8
  br label %55

42:                                               ; preds = %36
  %43 = load ptr, ptr %3, align 8, !tbaa !19
  %44 = getelementptr inbounds nuw %struct.PyCodeObject, ptr %43, i32 0, i32 26
  %45 = load ptr, ptr %44, align 8, !tbaa !215
  %46 = icmp ne ptr %45, null
  br i1 %46, label %47, label %48

47:                                               ; preds = %42
  store ptr @.str.66, ptr %2, align 8
  br label %55

48:                                               ; preds = %42
  %49 = load ptr, ptr %3, align 8, !tbaa !19
  %50 = getelementptr inbounds nuw %struct.PyCodeObject, ptr %49, i32 0, i32 29
  %51 = load ptr, ptr %50, align 8, !tbaa !216
  %52 = icmp ne ptr %51, null
  br i1 %52, label %53, label %54

53:                                               ; preds = %48
  store ptr @.str.66, ptr %2, align 8
  br label %55

54:                                               ; preds = %48
  store ptr null, ptr %2, align 8
  br label %55

55:                                               ; preds = %54, %53, %47, %41, %30, %24
  %56 = load ptr, ptr %2, align 8
  ret ptr %56
}

; Function Attrs: inlinehint nounwind uwtable
define internal ptr @_Py_NewRef(ptr noundef %0) #3 {
  %2 = alloca ptr, align 8
  store ptr %0, ptr %2, align 8, !tbaa !3
  %3 = load ptr, ptr %2, align 8, !tbaa !3
  call void @Py_INCREF(ptr noundef %3)
  %4 = load ptr, ptr %2, align 8, !tbaa !3
  ret ptr %4
}

; Function Attrs: alwaysinline nounwind uwtable
define internal void @Py_INCREF(ptr noundef %0) #4 {
  %2 = alloca ptr, align 8
  %3 = alloca i32, align 4
  %4 = alloca i32, align 4
  store ptr %0, ptr %2, align 8, !tbaa !3
  call void @llvm.lifetime.start.p0(i64 4, ptr %3) #8
  %5 = load ptr, ptr %2, align 8, !tbaa !3
  %6 = getelementptr inbounds nuw %struct._object, ptr %5, i32 0, i32 0
  %7 = getelementptr inbounds nuw %struct.anon, ptr %6, i32 0, i32 0
  %8 = load i32, ptr %7, align 8, !tbaa !38
  store i32 %8, ptr %3, align 4, !tbaa !11
  %9 = load i32, ptr %3, align 4, !tbaa !11
  %10 = icmp slt i32 %9, 0
  br i1 %10, label %11, label %12

11:                                               ; preds = %1
  store i32 1, ptr %4, align 4
  br label %18

12:                                               ; preds = %1
  %13 = load i32, ptr %3, align 4, !tbaa !11
  %14 = add i32 %13, 1
  %15 = load ptr, ptr %2, align 8, !tbaa !3
  %16 = getelementptr inbounds nuw %struct._object, ptr %15, i32 0, i32 0
  %17 = getelementptr inbounds nuw %struct.anon, ptr %16, i32 0, i32 0
  store i32 %14, ptr %17, align 8, !tbaa !38
  store i32 0, ptr %4, align 4
  br label %18

18:                                               ; preds = %12, %11
  call void @llvm.lifetime.end.p0(i64 4, ptr %3) #8
  %19 = load i32, ptr %4, align 4
  switch i32 %19, label %21 [
    i32 0, label %20
    i32 1, label %20
  ]

20:                                               ; preds = %18, %18
  ret void

21:                                               ; preds = %18
  unreachable
}

; Function Attrs: inlinehint nounwind uwtable
define internal i32 @Py_IS_TYPE(ptr noundef %0, ptr noundef %1) #3 {
  %3 = alloca ptr, align 8
  %4 = alloca ptr, align 8
  store ptr %0, ptr %3, align 8, !tbaa !3
  store ptr %1, ptr %4, align 8, !tbaa !39
  %5 = load ptr, ptr %3, align 8, !tbaa !3
  %6 = call ptr @_Py_TYPE(ptr noundef %5)
  %7 = load ptr, ptr %4, align 8, !tbaa !39
  %8 = icmp eq ptr %6, %7
  %9 = zext i1 %8 to i32
  ret i32 %9
}

; Function Attrs: nounwind uwtable
define internal ptr @convert_code_arg(ptr noundef %0, ptr noundef %1, ptr noundef %2, ptr noundef %3) #0 {
  %5 = alloca ptr, align 8
  %6 = alloca ptr, align 8
  %7 = alloca ptr, align 8
  %8 = alloca ptr, align 8
  %9 = alloca ptr, align 8
  %10 = alloca ptr, align 8
  %11 = alloca ptr, align 8
  %12 = alloca i32, align 4
  %13 = alloca ptr, align 8
  store ptr %0, ptr %6, align 8, !tbaa !3
  store ptr %1, ptr %7, align 8, !tbaa !9
  store ptr %2, ptr %8, align 8, !tbaa !9
  store ptr %3, ptr %9, align 8, !tbaa !9
  call void @llvm.lifetime.start.p0(i64 8, ptr %10) #8
  store ptr null, ptr %10, align 8, !tbaa !9
  call void @llvm.lifetime.start.p0(i64 8, ptr %11) #8
  store ptr null, ptr %11, align 8, !tbaa !19
  %14 = load ptr, ptr %6, align 8, !tbaa !3
  %15 = call i32 @Py_IS_TYPE(ptr noundef %14, ptr noundef @PyFunction_Type)
  %16 = icmp ne i32 %15, 0
  br i1 %16, label %17, label %44

17:                                               ; preds = %4
  %18 = load ptr, ptr %6, align 8, !tbaa !3
  %19 = call ptr @PyFunction_GetClosure(ptr noundef %18)
  %20 = icmp ne ptr %19, null
  br i1 %20, label %21, label %25

21:                                               ; preds = %17
  %22 = load ptr, ptr @PyExc_ValueError, align 8, !tbaa !3
  %23 = load ptr, ptr %7, align 8, !tbaa !9
  %24 = call ptr (ptr, ptr, ...) @PyErr_Format(ptr noundef %22, ptr noundef @.str.58, ptr noundef %23)
  store ptr null, ptr %5, align 8
  store i32 1, ptr %12, align 4
  br label %72

25:                                               ; preds = %17
  %26 = load ptr, ptr %6, align 8, !tbaa !3
  %27 = call ptr @PyFunction_GetCode(ptr noundef %26)
  store ptr %27, ptr %11, align 8, !tbaa !19
  %28 = load ptr, ptr %11, align 8, !tbaa !19
  %29 = icmp eq ptr %28, null
  br i1 %29, label %30, label %42

30:                                               ; preds = %25
  %31 = call ptr @PyErr_Occurred()
  %32 = icmp ne ptr %31, null
  br i1 %32, label %33, label %37

33:                                               ; preds = %30
  %34 = load ptr, ptr @PyExc_ValueError, align 8, !tbaa !3
  %35 = load ptr, ptr %7, align 8, !tbaa !9
  %36 = call ptr (ptr, ptr, ...) @PyErr_Format(ptr noundef %34, ptr noundef @.str.59, ptr noundef %35)
  br label %41

37:                                               ; preds = %30
  %38 = load ptr, ptr @PyExc_ValueError, align 8, !tbaa !3
  %39 = load ptr, ptr %7, align 8, !tbaa !9
  %40 = call ptr (ptr, ptr, ...) @PyErr_Format(ptr noundef %38, ptr noundef @.str.60, ptr noundef %39)
  br label %41

41:                                               ; preds = %37, %33
  store ptr null, ptr %5, align 8
  store i32 1, ptr %12, align 4
  br label %72

42:                                               ; preds = %25
  %43 = load ptr, ptr %11, align 8, !tbaa !19
  call void @Py_INCREF(ptr noundef %43)
  store ptr @.str.61, ptr %10, align 8, !tbaa !9
  br label %57

44:                                               ; preds = %4
  %45 = load ptr, ptr %6, align 8, !tbaa !3
  %46 = call i32 @Py_IS_TYPE(ptr noundef %45, ptr noundef @PyCode_Type)
  %47 = icmp ne i32 %46, 0
  br i1 %47, label %48, label %51

48:                                               ; preds = %44
  %49 = load ptr, ptr %6, align 8, !tbaa !3
  %50 = call ptr @_Py_NewRef(ptr noundef %49)
  store ptr %50, ptr %11, align 8, !tbaa !19
  store ptr @.str.62, ptr %10, align 8, !tbaa !9
  br label %56

51:                                               ; preds = %44
  %52 = load ptr, ptr %7, align 8, !tbaa !9
  %53 = load ptr, ptr %8, align 8, !tbaa !9
  %54 = load ptr, ptr %9, align 8, !tbaa !9
  %55 = load ptr, ptr %6, align 8, !tbaa !3
  call void @_PyArg_BadArgument(ptr noundef %52, ptr noundef %53, ptr noundef %54, ptr noundef %55)
  store ptr null, ptr %5, align 8
  store i32 1, ptr %12, align 4
  br label %72

56:                                               ; preds = %48
  br label %57

57:                                               ; preds = %56, %42
  call void @llvm.lifetime.start.p0(i64 8, ptr %13) #8
  %58 = load ptr, ptr %11, align 8, !tbaa !19
  %59 = call ptr @check_code_object(ptr noundef %58)
  store ptr %59, ptr %13, align 8, !tbaa !9
  %60 = load ptr, ptr %13, align 8, !tbaa !9
  %61 = icmp ne ptr %60, null
  br i1 %61, label %62, label %69

62:                                               ; preds = %57
  %63 = load ptr, ptr %11, align 8, !tbaa !19
  call void @Py_DECREF(ptr noundef %63)
  %64 = load ptr, ptr @PyExc_ValueError, align 8, !tbaa !3
  %65 = load ptr, ptr %7, align 8, !tbaa !9
  %66 = load ptr, ptr %10, align 8, !tbaa !9
  %67 = load ptr, ptr %13, align 8, !tbaa !9
  %68 = call ptr (ptr, ptr, ...) @PyErr_Format(ptr noundef %64, ptr noundef @.str.63, ptr noundef %65, ptr noundef %66, ptr noundef %67)
  store ptr null, ptr %5, align 8
  store i32 1, ptr %12, align 4
  br label %71

69:                                               ; preds = %57
  %70 = load ptr, ptr %11, align 8, !tbaa !19
  store ptr %70, ptr %5, align 8
  store i32 1, ptr %12, align 4
  br label %71

71:                                               ; preds = %69, %62
  call void @llvm.lifetime.end.p0(i64 8, ptr %13) #8
  br label %72

72:                                               ; preds = %71, %51, %41, %21
  call void @llvm.lifetime.end.p0(i64 8, ptr %11) #8
  call void @llvm.lifetime.end.p0(i64 8, ptr %10) #8
  %73 = load ptr, ptr %5, align 8
  ret ptr %73
}