; Function Attrs: nounwind uwtable
define internal fastcc ptr @convert_code_arg(ptr noundef %0, ptr noundef %1, ptr noundef %2) unnamed_addr #0 {
  %4 = getelementptr i8, ptr %0, i64 8
  %.val = load ptr, ptr %4, align 8, !tbaa !23
  %.not = icmp eq ptr %.val, @PyFunction_Type
  br i1 %.not, label %5, label %23

5:                                                ; preds = %3
  %6 = tail call ptr @PyFunction_GetClosure(ptr noundef nonnull %0) #7
  %.not27 = icmp eq ptr %6, null
  br i1 %.not27, label %10, label %7

7:                                                ; preds = %5
  %8 = load ptr, ptr @PyExc_ValueError, align 8, !tbaa !15
  %9 = tail call ptr (ptr, ptr, ...) @PyErr_Format(ptr noundef %8, ptr noundef nonnull @.str.58, ptr noundef %1) #7
  br label %check_code_object.exit

10:                                               ; preds = %5
  %11 = tail call ptr @PyFunction_GetCode(ptr noundef nonnull %0) #7
  %12 = icmp eq ptr %11, null
  br i1 %12, label %13, label %20

13:                                               ; preds = %10
  %14 = tail call ptr @PyErr_Occurred() #7
  %.not29 = icmp eq ptr %14, null
  %15 = load ptr, ptr @PyExc_ValueError, align 8, !tbaa !15
  br i1 %.not29, label %18, label %16

16:                                               ; preds = %13
  %17 = tail call ptr (ptr, ptr, ...) @PyErr_Format(ptr noundef %15, ptr noundef nonnull @.str.59, ptr noundef %1) #7
  br label %check_code_object.exit

18:                                               ; preds = %13
  %19 = tail call ptr (ptr, ptr, ...) @PyErr_Format(ptr noundef %15, ptr noundef nonnull @.str.60, ptr noundef %1) #7
  br label %check_code_object.exit

20:                                               ; preds = %10
  %21 = load i32, ptr %11, align 8, !tbaa !11
  %22 = icmp slt i32 %21, 0
  br i1 %22, label %Py_INCREF.exit, label %Py_INCREF.exit.sink.split

23:                                               ; preds = %3
  %.not4 = icmp eq ptr %.val, @PyCode_Type
  br i1 %.not4, label %24, label %27

24:                                               ; preds = %23
  %25 = load i32, ptr %0, align 8, !tbaa !11
  %26 = icmp slt i32 %25, 0
  br i1 %26, label %Py_INCREF.exit, label %Py_INCREF.exit.sink.split

27:                                               ; preds = %23
  tail call void @_PyArg_BadArgument(ptr noundef %1, ptr noundef nonnull @.str.55, ptr noundef %2, ptr noundef nonnull %0) #7
  br label %check_code_object.exit

Py_INCREF.exit.sink.split:                        ; preds = %24, %20
  %.sink6 = phi i32 [ %21, %20 ], [ %25, %24 ]
  %.sink5 = phi ptr [ %11, %20 ], [ %0, %24 ]
  %.023.ph = phi ptr [ @.str.61, %20 ], [ @.str.62, %24 ]
  %28 = add nuw i32 %.sink6, 1
  store i32 %28, ptr %.sink5, align 8, !tbaa !11
  br label %Py_INCREF.exit

Py_INCREF.exit:                                   ; preds = %Py_INCREF.exit.sink.split, %24, %20
  %29 = phi i32 [ %21, %20 ], [ %25, %24 ], [ %28, %Py_INCREF.exit.sink.split ]
  %.023 = phi ptr [ @.str.61, %20 ], [ @.str.62, %24 ], [ %.023.ph, %Py_INCREF.exit.sink.split ]
  %.022 = phi ptr [ %11, %20 ], [ %0, %24 ], [ %.sink5, %Py_INCREF.exit.sink.split ]
  %30 = getelementptr inbounds nuw i8, ptr %.022, i64 52
  %31 = load i32, ptr %30, align 4, !tbaa !195
  %32 = icmp sgt i32 %31, 0
  br i1 %32, label %61, label %33

33:                                               ; preds = %Py_INCREF.exit
  %34 = getelementptr inbounds nuw i8, ptr %.022, i64 56
  %35 = load i32, ptr %34, align 8, !tbaa !197
  %36 = icmp sgt i32 %35, 0
  br i1 %36, label %61, label %37

37:                                               ; preds = %33
  %38 = getelementptr inbounds nuw i8, ptr %.022, i64 60
  %39 = load i32, ptr %38, align 4, !tbaa !198
  %40 = icmp sgt i32 %39, 0
  br i1 %40, label %61, label %41

41:                                               ; preds = %37
  %42 = getelementptr inbounds nuw i8, ptr %.022, i64 48
  %43 = load i32, ptr %42, align 8, !tbaa !199
  %44 = and i32 %43, 12
  %.not.i31 = icmp eq i32 %44, 0
  br i1 %.not.i31, label %45, label %61

45:                                               ; preds = %41
  %46 = getelementptr inbounds nuw i8, ptr %.022, i64 84
  %47 = load i32, ptr %46, align 4, !tbaa !200
  %48 = icmp sgt i32 %47, 0
  br i1 %48, label %61, label %49

49:                                               ; preds = %45
  %50 = getelementptr inbounds nuw i8, ptr %.022, i64 152
  %51 = load ptr, ptr %50, align 8, !tbaa !201
  %.not10.i = icmp eq ptr %51, null
  br i1 %.not10.i, label %52, label %61

52:                                               ; preds = %49
  %53 = getelementptr inbounds nuw i8, ptr %.022, i64 168
  %54 = load i64, ptr %53, align 8, !tbaa !202
  %.not11.i = icmp eq i64 %54, 0
  br i1 %.not11.i, label %55, label %61

55:                                               ; preds = %52
  %56 = getelementptr inbounds nuw i8, ptr %.022, i64 176
  %57 = load ptr, ptr %56, align 8, !tbaa !203
  %.not12.i = icmp eq ptr %57, null
  br i1 %.not12.i, label %58, label %61

58:                                               ; preds = %55
  %59 = getelementptr inbounds nuw i8, ptr %.022, i64 200
  %60 = load ptr, ptr %59, align 8, !tbaa !204
  %.not13.i = icmp eq ptr %60, null
  br i1 %.not13.i, label %check_code_object.exit, label %61

61:                                               ; preds = %41, %37, %33, %Py_INCREF.exit, %45, %52, %49, %55, %58
  %.0.i.ph = phi ptr [ @.str.66, %58 ], [ @.str.66, %55 ], [ @.str.66, %49 ], [ @.str.66, %52 ], [ @.str.65, %45 ], [ @.str.64, %Py_INCREF.exit ], [ @.str.64, %33 ], [ @.str.64, %37 ], [ @.str.64, %41 ]
  %.not.i = icmp sgt i32 %29, -1
  br i1 %.not.i, label %62, label %Py_DECREF.exit

62:                                               ; preds = %61
  %63 = add nsw i32 %29, -1
  store i32 %63, ptr %.022, align 8, !tbaa !11
  %64 = icmp eq i32 %63, 0
  br i1 %64, label %65, label %Py_DECREF.exit

65:                                               ; preds = %62
  tail call void @_Py_Dealloc(ptr noundef nonnull %.022) #7
  br label %Py_DECREF.exit

Py_DECREF.exit:                                   ; preds = %61, %62, %65
  %66 = load ptr, ptr @PyExc_ValueError, align 8, !tbaa !15
  %67 = tail call ptr (ptr, ptr, ...) @PyErr_Format(ptr noundef %66, ptr noundef nonnull @.str.63, ptr noundef %1, ptr noundef nonnull %.023, ptr noundef nonnull %.0.i.ph) #7
  br label %check_code_object.exit

check_code_object.exit:                           ; preds = %58, %Py_DECREF.exit, %16, %18, %27, %7
  %.0 = phi ptr [ null, %7 ], [ null, %27 ], [ null, %18 ], [ null, %16 ], [ null, %Py_DECREF.exit ], [ %.022, %58 ]
  ret ptr %.0
}